target datalayout = "e-m:e-p270:32:32-p271:32:32-p272:64:64-i64:64-i128:128-f80:128-n8:16:32:64-S128"
target triple = "x86_64-pc-linux-gnu"

%struct.ScanKeyData = type { i32, i16, i16, i32, i32, %struct.FmgrInfo, i64 }
%struct.FmgrInfo = type { ptr, i32, i16, i8, i8, i8, ptr, ptr, ptr }
%struct.HeapTupleData = type { i32, %struct.ItemPointerData, i32, ptr }
%struct.ItemPointerData = type { %struct.BlockIdData, i16 }
%struct.BlockIdData = type { i16, i16 }
%struct.RelationData = type { %struct.RelFileLocator, ptr, i32, i32, i8, i8, i8, i8, i8, i32, i32, i32, i32, ptr, ptr, i32, %struct.LockInfoData, ptr, ptr, ptr, ptr, ptr, i8, ptr, ptr, ptr, ptr, ptr, ptr, i32, ptr, i8, ptr, ptr, i32, i8, i32, ptr, i8, ptr, ptr, ptr, ptr, ptr, ptr, ptr, i32, ptr, ptr, ptr, ptr, ptr, ptr, ptr, ptr, ptr, ptr, ptr, ptr, ptr, ptr, ptr, ptr, ptr, ptr, ptr, i32, i8, ptr }
%struct.RelFileLocator = type { i32, i32, i32 }
%struct.LockInfoData = type { %struct.LockRelId }
%struct.LockRelId = type { i32, i32 }

; Function Attrs: inlinehint nounwind uwtable
define internal i64 @PointerGetDatum(ptr noundef %0) #7 {
  %2 = alloca ptr, align 8
  store ptr %0, ptr %2, align 8
  %3 = load ptr, ptr %2, align 8
  %4 = ptrtoint ptr %3 to i64
  ret i64 %4
}

; Function Attrs: inlinehint nounwind uwtable
define internal ptr @DatumGetPointer(i64 noundef %0) #7 {
  %2 = alloca i64, align 8
  store i64 %0, ptr %2, align 8
  %3 = load i64, ptr %2, align 8
  %4 = inttoptr i64 %3 to ptr
  ret ptr %4
}

; Function Attrs: inlinehint nounwind uwtable
define internal i64 @Int32GetDatum(i32 noundef %0) #7 {
  %2 = alloca i32, align 4
  store i32 %0, ptr %2, align 4
  %3 = load i32, ptr %2, align 4
  %4 = sext i32 %3 to i64
  ret i64 %4
}

; Function Attrs: inlinehint nounwind uwtable
define internal i64 @ObjectIdGetDatum(i32 noundef %0) #7 {
  %2 = alloca i32, align 4
  store i32 %0, ptr %2, align 4
  %3 = load i32, ptr %2, align 4
  %4 = zext i32 %3 to i64
  ret i64 %4
}

; Function Attrs: nounwind uwtable
define dso_local void @ReplaceRoleInInitPriv(i32 noundef %0, i32 noundef %1, i32 noundef %2, i32 noundef %3, i32 noundef %4) #0 {
  %6 = alloca i32, align 4
  %7 = alloca i32, align 4
  %8 = alloca i32, align 4
  %9 = alloca i32, align 4
  %10 = alloca i32, align 4
  %11 = alloca ptr, align 8
  %12 = alloca [3 x %struct.ScanKeyData], align 16
  %13 = alloca ptr, align 8
  %14 = alloca ptr, align 8
  %15 = alloca i64, align 8
  %16 = alloca i8, align 1
  %17 = alloca ptr, align 8
  %18 = alloca ptr, align 8
  %19 = alloca ptr, align 8
  %20 = alloca i32, align 4
  %21 = alloca i32, align 4
  %22 = alloca ptr, align 8
  %23 = alloca ptr, align 8
  %24 = alloca i32, align 4
  %25 = alloca [5 x i64], align 16
  %26 = alloca [5 x i8], align 1
  %27 = alloca [5 x i8], align 1
  store i32 %0, ptr %6, align 4
  store i32 %1, ptr %7, align 4
  store i32 %2, ptr %8, align 4
  store i32 %3, ptr %9, align 4
  store i32 %4, ptr %10, align 4
  call void @llvm.lifetime.start.p0(i64 8, ptr %11) #9
  call void @llvm.lifetime.start.p0(i64 216, ptr %12) #9
  call void @llvm.lifetime.start.p0(i64 8, ptr %13) #9
  call void @llvm.lifetime.start.p0(i64 8, ptr %14) #9
  call void @llvm.lifetime.start.p0(i64 8, ptr %15) #9
  call void @llvm.lifetime.start.p0(i64 1, ptr %16) #9
  call void @llvm.lifetime.start.p0(i64 8, ptr %17) #9
  call void @llvm.lifetime.start.p0(i64 8, ptr %18) #9
  call void @llvm.lifetime.start.p0(i64 8, ptr %19) #9
  call void @llvm.lifetime.start.p0(i64 4, ptr %20) #9
  call void @llvm.lifetime.start.p0(i64 4, ptr %21) #9
  call void @llvm.lifetime.start.p0(i64 8, ptr %22) #9
  call void @llvm.lifetime.start.p0(i64 8, ptr %23) #9
  %28 = call ptr @table_open(i32 noundef 3394, i32 noundef 3)
  store ptr %28, ptr %11, align 8
  %29 = getelementptr inbounds [3 x %struct.ScanKeyData], ptr %12, i64 0, i64 0
  %30 = load i32, ptr %9, align 4
  %31 = call i64 @ObjectIdGetDatum(i32 noundef %30)
  call void @ScanKeyInit(ptr noundef %29, i16 noundef signext 1, i16 noundef zeroext 3, i32 noundef 184, i64 noundef %31)
  %32 = getelementptr inbounds [3 x %struct.ScanKeyData], ptr %12, i64 0, i64 1
  %33 = load i32, ptr %8, align 4
  %34 = call i64 @ObjectIdGetDatum(i32 noundef %33)
  call void @ScanKeyInit(ptr noundef %32, i16 noundef signext 2, i16 noundef zeroext 3, i32 noundef 184, i64 noundef %34)
  %35 = getelementptr inbounds [3 x %struct.ScanKeyData], ptr %12, i64 0, i64 2
  %36 = load i32, ptr %10, align 4
  %37 = call i64 @Int32GetDatum(i32 noundef %36)
  call void @ScanKeyInit(ptr noundef %35, i16 noundef signext 3, i16 noundef zeroext 3, i32 noundef 65, i64 noundef %37)
  %38 = load ptr, ptr %11, align 8
  %39 = getelementptr inbounds [3 x %struct.ScanKeyData], ptr %12, i64 0, i64 0
  %40 = call ptr @systable_beginscan(ptr noundef %38, i32 noundef 3395, i1 noundef zeroext true, ptr noundef null, i32 noundef 3, ptr noundef %39)
  store ptr %40, ptr %13, align 8
  %41 = load ptr, ptr %13, align 8
  %42 = call ptr @systable_getnext(ptr noundef %41)
  store ptr %42, ptr %14, align 8
  %43 = load ptr, ptr %14, align 8
  %44 = icmp ne ptr %43, null
  br i1 %44, label %48, label %45

45:                                               ; preds = %5
  %46 = load ptr, ptr %13, align 8
  call void @systable_endscan(ptr noundef %46)
  %47 = load ptr, ptr %11, align 8
  call void @table_close(ptr noundef %47, i32 noundef 3)
  store i32 1, ptr %24, align 4
  br label %104

48:                                               ; preds = %5
  %49 = load ptr, ptr %14, align 8
  %50 = load ptr, ptr %11, align 8
  %51 = getelementptr inbounds nuw %struct.RelationData, ptr %50, i32 0, i32 14
  %52 = load ptr, ptr %51, align 8
  %53 = call i64 @heap_getattr(ptr noundef %49, i32 noundef 5, ptr noundef %52, ptr noundef %16)
  store i64 %53, ptr %15, align 8
  %54 = load i64, ptr %15, align 8
  %55 = call ptr @DatumGetPointer(i64 noundef %54)
  %56 = call ptr @pg_detoast_datum_copy(ptr noundef %55)
  store ptr %56, ptr %17, align 8
  %57 = load ptr, ptr %17, align 8
  %58 = load i32, ptr %6, align 4
  %59 = load i32, ptr %7, align 4
  %60 = call ptr @aclnewowner(ptr noundef %57, i32 noundef %58, i32 noundef %59)
  store ptr %60, ptr %18, align 8
  %61 = load ptr, ptr %18, align 8
  %62 = icmp eq ptr %61, null
  br i1 %62, label %69, label %63

63:                                               ; preds = %48
  %64 = load ptr, ptr %18, align 8
  %65 = getelementptr inbounds nuw i8, ptr %64, i64 16
  %66 = getelementptr inbounds i32, ptr %65, i64 0
  %67 = load i32, ptr %66, align 4
  %68 = icmp eq i32 %67, 0
  br i1 %68, label %69, label %73

69:                                               ; preds = %63, %48
  %70 = load ptr, ptr %11, align 8
  %71 = load ptr, ptr %14, align 8
  %72 = getelementptr inbounds nuw %struct.HeapTupleData, ptr %71, i32 0, i32 1
  call void @CatalogTupleDelete(ptr noundef %70, ptr noundef %72)
  br label %90

73:                                               ; preds = %63
  call void @llvm.lifetime.start.p0(i64 40, ptr %25) #9
  call void @llvm.memset.p0.i64(ptr align 16 %25, i8 0, i64 40, i1 false)
  call void @llvm.lifetime.start.p0(i64 5, ptr %26) #9
  call void @llvm.memset.p0.i64(ptr align 1 %26, i8 0, i64 5, i1 false)
  call void @llvm.lifetime.start.p0(i64 5, ptr %27) #9
  call void @llvm.memset.p0.i64(ptr align 1 %27, i8 0, i64 5, i1 false)
  %74 = load ptr, ptr %18, align 8
  %75 = call i64 @PointerGetDatum(ptr noundef %74)
  %76 = getelementptr inbounds [5 x i64], ptr %25, i64 0, i64 4
  store i64 %75, ptr %76, align 16
  %77 = getelementptr inbounds [5 x i8], ptr %27, i64 0, i64 4
  store i8 1, ptr %77, align 1
  %78 = load ptr, ptr %14, align 8
  %79 = load ptr, ptr %11, align 8
  %80 = getelementptr inbounds nuw %struct.RelationData, ptr %79, i32 0, i32 14
  %81 = load ptr, ptr %80, align 8
  %82 = getelementptr inbounds [5 x i64], ptr %25, i64 0, i64 0
  %83 = getelementptr inbounds [5 x i8], ptr %26, i64 0, i64 0
  %84 = getelementptr inbounds [5 x i8], ptr %27, i64 0, i64 0
  %85 = call ptr @heap_modify_tuple(ptr noundef %78, ptr noundef %81, ptr noundef %82, ptr noundef %83, ptr noundef %84)
  store ptr %85, ptr %19, align 8
  %86 = load ptr, ptr %11, align 8
  %87 = load ptr, ptr %19, align 8
  %88 = getelementptr inbounds nuw %struct.HeapTupleData, ptr %87, i32 0, i32 1
  %89 = load ptr, ptr %19, align 8
  call void @CatalogTupleUpdate(ptr noundef %86, ptr noundef %88, ptr noundef %89)
  call void @llvm.lifetime.end.p0(i64 5, ptr %27) #9
  call void @llvm.lifetime.end.p0(i64 5, ptr %26) #9
  call void @llvm.lifetime.end.p0(i64 40, ptr %25) #9
  br label %90

90:                                               ; preds = %73, %69
  %91 = load ptr, ptr %17, align 8
  %92 = call i32 @aclmembers(ptr noundef %91, ptr noundef %22)
  store i32 %92, ptr %20, align 4
  %93 = load ptr, ptr %18, align 8
  %94 = call i32 @aclmembers(ptr noundef %93, ptr noundef %23)
  store i32 %94, ptr %21, align 4
  %95 = load i32, ptr %8, align 4
  %96 = load i32, ptr %9, align 4
  %97 = load i32, ptr %10, align 4
  %98 = load i32, ptr %20, align 4
  %99 = load ptr, ptr %22, align 8
  %100 = load i32, ptr %21, align 4
  %101 = load ptr, ptr %23, align 8
  call void @updateInitAclDependencies(i32 noundef %95, i32 noundef %96, i32 noundef %97, i32 noundef %98, ptr noundef %99, i32 noundef %100, ptr noundef %101)
  %102 = load ptr, ptr %13, align 8
  call void @systable_endscan(ptr noundef %102)
  call void @CommandCounterIncrement()
  %103 = load ptr, ptr %11, align 8
  call void @table_close(ptr noundef %103, i32 noundef 3)
  store i32 0, ptr %24, align 4
  br label %104

104:                                              ; preds = %90, %45
  call void @llvm.lifetime.end.p0(i64 8, ptr %23) #9
  call void @llvm.lifetime.end.p0(i64 8, ptr %22) #9
  call void @llvm.lifetime.end.p0(i64 4, ptr %21) #9
  call void @llvm.lifetime.end.p0(i64 4, ptr %20) #9
  call void @llvm.lifetime.end.p0(i64 8, ptr %19) #9
  call void @llvm.lifetime.end.p0(i64 8, ptr %18) #9
  call void @llvm.lifetime.end.p0(i64 8, ptr %17) #9
  call void @llvm.lifetime.end.p0(i64 1, ptr %16) #9
  call void @llvm.lifetime.end.p0(i64 8, ptr %15) #9
  call void @llvm.lifetime.end.p0(i64 8, ptr %14) #9
  call void @llvm.lifetime.end.p0(i64 8, ptr %13) #9
  call void @llvm.lifetime.end.p0(i64 216, ptr %12) #9
  call void @llvm.lifetime.end.p0(i64 8, ptr %11) #9
  %105 = load i32, ptr %24, align 4
  switch i32 %105, label %107 [
    i32 0, label %106
    i32 1, label %106
  ]

106:                                              ; preds = %104, %104
  ret void

107:                                              ; preds = %104
  unreachable
}