; Function Attrs: nounwind uwtable
define dso_local void @ReplaceRoleInInitPriv(i32 noundef %0, i32 noundef %1, i32 noundef %2, i32 noundef %3, i32 noundef %4) local_unnamed_addr #0 {
  %6 = alloca [3 x %struct.ScanKeyData], align 16
  %7 = alloca i8, align 1
  %8 = alloca ptr, align 8
  %9 = alloca ptr, align 8
  %10 = alloca [5 x i64], align 16
  %11 = alloca [5 x i8], align 1
  %12 = alloca [5 x i8], align 4
  call void @llvm.lifetime.start.p0(i64 216, ptr nonnull %6) #9
  call void @llvm.lifetime.start.p0(i64 1, ptr nonnull %7) #9
  call void @llvm.lifetime.start.p0(i64 8, ptr nonnull %8) #9
  call void @llvm.lifetime.start.p0(i64 8, ptr nonnull %9) #9
  %13 = tail call ptr @table_open(i32 noundef 3394, i32 noundef 3) #9
  %14 = zext i32 %3 to i64
  call void @ScanKeyInit(ptr noundef nonnull %6, i16 noundef signext 1, i16 noundef zeroext 3, i32 noundef 184, i64 noundef %14) #9
  %15 = getelementptr inbounds nuw i8, ptr %6, i64 72
  %16 = zext i32 %2 to i64
  call void @ScanKeyInit(ptr noundef nonnull %15, i16 noundef signext 2, i16 noundef zeroext 3, i32 noundef 184, i64 noundef %16) #9
  %17 = getelementptr inbounds nuw i8, ptr %6, i64 144
  %18 = sext i32 %4 to i64
  call void @ScanKeyInit(ptr noundef nonnull %17, i16 noundef signext 3, i16 noundef zeroext 3, i32 noundef 65, i64 noundef %18) #9
  %19 = call ptr @systable_beginscan(ptr noundef %13, i32 noundef 3395, i1 noundef zeroext true, ptr noundef null, i32 noundef 3, ptr noundef nonnull %6) #9
  %20 = call ptr @systable_getnext(ptr noundef %19) #9
  %.not = icmp eq ptr %20, null
  br i1 %.not, label %21, label %22

21:                                               ; preds = %5
  call void @systable_endscan(ptr noundef %19) #9
  br label %48

22:                                               ; preds = %5
  %23 = getelementptr inbounds nuw i8, ptr %13, i64 64
  %24 = load ptr, ptr %23, align 8
  %25 = call fastcc i64 @heap_getattr(ptr noundef %20, i32 noundef 5, ptr noundef %24, ptr noundef %7)
  %26 = inttoptr i64 %25 to ptr
  %27 = call ptr @pg_detoast_datum_copy(ptr noundef %26) #9
  %28 = call ptr @aclnewowner(ptr noundef %27, i32 noundef %0, i32 noundef %1) #9
  %29 = icmp eq ptr %28, null
  br i1 %29, label %34, label %30

30:                                               ; preds = %22
  %31 = getelementptr inbounds nuw i8, ptr %28, i64 16
  %32 = load i32, ptr %31, align 4
  %33 = icmp eq i32 %32, 0
  br i1 %33, label %34, label %36

34:                                               ; preds = %30, %22
  %35 = getelementptr inbounds nuw i8, ptr %20, i64 4
  call void @CatalogTupleDelete(ptr noundef nonnull %13, ptr noundef nonnull %35) #9
  br label %43

36:                                               ; preds = %30
  call void @llvm.lifetime.start.p0(i64 40, ptr nonnull %10) #9
  call void @llvm.memset.p0.i64(ptr noundef nonnull align 16 dereferenceable(40) %10, i8 0, i64 32, i1 false)
  call void @llvm.lifetime.start.p0(i64 5, ptr nonnull %11) #9
  call void @llvm.memset.p0.i64(ptr noundef nonnull align 1 dereferenceable(5) %11, i8 0, i64 5, i1 false)
  call void @llvm.lifetime.start.p0(i64 5, ptr nonnull %12) #9
  store i32 0, ptr %12, align 4
  %37 = ptrtoint ptr %28 to i64
  %38 = getelementptr inbounds nuw i8, ptr %10, i64 32
  store i64 %37, ptr %38, align 16
  %39 = getelementptr inbounds nuw i8, ptr %12, i64 4
  store i8 1, ptr %39, align 4
  %40 = load ptr, ptr %23, align 8
  %41 = call ptr @heap_modify_tuple(ptr noundef nonnull %20, ptr noundef %40, ptr noundef nonnull %10, ptr noundef nonnull %11, ptr noundef nonnull %12) #9
  %42 = getelementptr inbounds nuw i8, ptr %41, i64 4
  call void @CatalogTupleUpdate(ptr noundef nonnull %13, ptr noundef nonnull %42, ptr noundef %41) #9
  call void @llvm.lifetime.end.p0(i64 5, ptr nonnull %12) #9
  call void @llvm.lifetime.end.p0(i64 5, ptr nonnull %11) #9
  call void @llvm.lifetime.end.p0(i64 40, ptr nonnull %10) #9
  br label %43

43:                                               ; preds = %36, %34
  %44 = call i32 @aclmembers(ptr noundef %27, ptr noundef nonnull %8) #9
  %45 = call i32 @aclmembers(ptr noundef %28, ptr noundef nonnull %9) #9
  %46 = load ptr, ptr %8, align 8
  %47 = load ptr, ptr %9, align 8
  call void @updateInitAclDependencies(i32 noundef %2, i32 noundef %3, i32 noundef %4, i32 noundef %44, ptr noundef %46, i32 noundef %45, ptr noundef %47) #9
  call void @systable_endscan(ptr noundef %19) #9
  call void @CommandCounterIncrement() #9
  br label %48

48:                                               ; preds = %43, %21
  call void @table_close(ptr noundef %13, i32 noundef 3) #9
  call void @llvm.lifetime.end.p0(i64 8, ptr nonnull %9) #9
  call void @llvm.lifetime.end.p0(i64 8, ptr nonnull %8) #9
  call void @llvm.lifetime.end.p0(i64 1, ptr nonnull %7) #9
  call void @llvm.lifetime.end.p0(i64 216, ptr nonnull %6) #9
  ret void
}